; Function Attrs: nounwind uwtable
define internal i32 @musx_read_packet(ptr noundef readonly captures(none) %0, ptr noundef %1) #1 {
  %3 = getelementptr inbounds nuw i8, ptr %0, i64 48
  %4 = load ptr, ptr %3, align 8, !tbaa !41
  %5 = load ptr, ptr %4, align 8, !tbaa !42
  %6 = getelementptr inbounds nuw i8, ptr %5, i64 16
  %7 = load ptr, ptr %6, align 8, !tbaa !27
  %8 = getelementptr inbounds nuw i8, ptr %0, i64 32
  %9 = load ptr, ptr %8, align 8, !tbaa !12
  %10 = getelementptr inbounds nuw i8, ptr %7, i64 156
  %11 = load i32, ptr %10, align 4, !tbaa !40
  %12 = tail call i32 @av_get_packet(ptr noundef %9, ptr noundef %1, i32 noundef %11) #4
  ret i32 %12
}